; Function Attrs: mustprogress uwtable
define noundef ptr @_ZN11OpenImageIO6v3_1_026zfile_input_imageio_createEv() local_unnamed_addr #6 personality ptr @__gxx_personality_v0 {
  %1 = tail call noundef ptr @_ZN11OpenImageIO6v3_1_010ImageInputnwEm(i64 noundef 232)
  invoke void @_ZN11OpenImageIO6v3_1_010ImageInputC2Ev(ptr noundef nonnull align 8 dereferenceable(232) %1)
          to label %2 unwind label %9

2:                                                ; preds = %0
  store ptr getelementptr inbounds nuw inrange(-16, 272) (i8, ptr @_ZTVN11OpenImageIO6v3_1_010ZfileInputE, i64 16), ptr %1, align 8, !tbaa !3
  %3 = getelementptr inbounds nuw i8, ptr %1, i64 184
  %4 = getelementptr inbounds nuw i8, ptr %1, i64 200
  store ptr %4, ptr %3, align 8, !tbaa !6
  %5 = getelementptr inbounds nuw i8, ptr %1, i64 192
  %6 = getelementptr inbounds nuw i8, ptr %1, i64 216
  store ptr null, ptr %6, align 8, !tbaa !11
  %7 = getelementptr inbounds nuw i8, ptr %1, i64 224
  store i8 0, ptr %7, align 8, !tbaa !46
  %8 = getelementptr inbounds nuw i8, ptr %1, i64 228
  store i32 0, ptr %8, align 4, !tbaa !47
  tail call void @llvm.memset.p0.i64(ptr noundef nonnull align 8 dereferenceable(9) %5, i8 0, i64 9, i1 false)
  ret ptr %1

9:                                                ; preds = %0
  %10 = landingpad { ptr, i32 }
          cleanup
  tail call void @_ZN11OpenImageIO6v3_1_010ImageInputdlEPv(ptr noundef nonnull %1) #25
  resume { ptr, i32 } %10
}